; Function Attrs: mustprogress uwtable
define void @_ZN4LIEF2PE12ResourceDataC2Ev(ptr noundef nonnull align 8 dereferenceable(116) %0) unnamed_addr #3 align 2 {
  tail call void @_ZN4LIEF2PE12ResourceNodeC2Ev(ptr noundef nonnull align 8 dereferenceable(76) %0)
  store ptr getelementptr inbounds ({ [8 x ptr] }, ptr @_ZTVN4LIEF2PE12ResourceDataE, i64 0, i32 0, i64 2), ptr %0, align 8
  %2 = getelementptr inbounds i8, ptr %0, i64 80
  %3 = getelementptr inbounds i8, ptr %0, i64 8
  tail call void @llvm.memset.p0.i64(ptr noundef nonnull align 8 dereferenceable(36) %2, i8 0, i64 36, i1 false)
  store i32 1, ptr %3, align 8
  ret void
}